; Function Attrs: nounwind sspstrong uwtable
define dso_local range(i32 0, -2147483648) i32 @qemu_fdt_setprop(ptr noundef %fdt, ptr noundef %node_path, ptr noundef %property, ptr noundef %val, i32 noundef %size) local_unnamed_addr #0 {
entry:
  %call.i = tail call i32 @fdt_path_offset(ptr noundef %fdt, ptr noundef %node_path) #12
  %cmp.i = icmp slt i32 %call.i, 0
  br i1 %cmp.i, label %if.then.i, label %findnode_nofail.exit

if.then.i:                                        ; preds = %entry
  %call1.i = tail call ptr @fdt_strerror(i32 noundef %call.i) #12
  tail call void (ptr, ...) @error_report(ptr noundef nonnull @.str.39, ptr noundef nonnull @__func__.findnode_nofail, ptr noundef %node_path, ptr noundef %call1.i) #12
  tail call void @exit(i32 noundef 1) #13
  unreachable

findnode_nofail.exit:                             ; preds = %entry
  %call1 = tail call i32 @fdt_setprop(ptr noundef %fdt, i32 noundef %call.i, ptr noundef %property, ptr noundef %val, i32 noundef %size) #12
  %cmp = icmp slt i32 %call1, 0
  br i1 %cmp, label %if.then, label %if.end

if.then:                                          ; preds = %findnode_nofail.exit
  %call2 = tail call ptr @fdt_strerror(i32 noundef %call1) #12
  tail call void (ptr, ...) @error_report(ptr noundef nonnull @.str.13, ptr noundef nonnull @__func__.qemu_fdt_setprop, ptr noundef %node_path, ptr noundef %property, ptr noundef %call2) #12
  tail call void @exit(i32 noundef 1) #13
  unreachable

if.end:                                           ; preds = %findnode_nofail.exit
  ret i32 %call1
}